target datalayout = "e-m:e-p270:32:32-p271:32:32-p272:64:64-i64:64-i128:128-f80:128-n8:16:32:64-S128"
target triple = "x86_64-pc-linux-gnu"

%union.jvalue = type { i64 }
%"class.ConstantTable::Constant" = type <{ i8, i8, [2 x i8], i32, %union.anon, i32, float, i8, [7 x i8] }>
%union.anon = type { %union.jvalue }
%class.GrowableArrayBase = type { i32, i32 }

@_type2aelembytes = external global [20 x i32], align 16

; Function Attrs: mustprogress nounwind uwtable
define hidden void @_ZN13ConstantTable3addEP16MachConstantNode9BasicTypeP13GrowableArrayI6jvalueEi(ptr dead_on_unwind noalias writable sret(%"class.ConstantTable::Constant") align 8 %0, ptr noundef nonnull align 8 dereferenceable(36) %1, ptr noundef %2, i8 noundef zeroext %3, ptr noundef %4, i32 noundef %5) #1 align 2 {
  %7 = alloca ptr, align 8
  %8 = alloca ptr, align 8
  %9 = alloca i8, align 1
  %10 = alloca ptr, align 8
  %11 = alloca i32, align 4
  store ptr %1, ptr %7, align 8
  store ptr %2, ptr %8, align 8
  store i8 %3, ptr %9, align 1
  store ptr %4, ptr %10, align 8
  store i32 %5, ptr %11, align 4
  %12 = load ptr, ptr %7, align 8
  %13 = load i8, ptr %9, align 1
  %14 = load ptr, ptr %10, align 8
  %15 = load i32, ptr %11, align 4
  call void @_ZN13ConstantTable8ConstantC2E9BasicTypeP13GrowableArrayI6jvalueEib(ptr noundef nonnull align 8 dereferenceable(25) %0, i8 noundef zeroext %13, ptr noundef %14, i32 noundef %15, i1 noundef zeroext true)
  call void @_ZN13ConstantTable3addERNS_8ConstantE(ptr noundef nonnull align 8 dereferenceable(36) %12, ptr noundef nonnull align 8 dereferenceable(25) %0)
  ret void
}

; Function Attrs: mustprogress nounwind uwtable
define linkonce_odr hidden noundef i32 @_Z15type2aelembytes9BasicTypeb(i8 noundef zeroext %0, i1 noundef zeroext %1) #1 comdat {
  %3 = alloca i8, align 1
  %4 = alloca i8, align 1
  store i8 %0, ptr %3, align 1
  %5 = zext i1 %1 to i8
  store i8 %5, ptr %4, align 1
  %6 = load i8, ptr %3, align 1
  %7 = zext i8 %6 to i64
  %8 = getelementptr inbounds [20 x i32], ptr @_type2aelembytes, i64 0, i64 %7
  %9 = load i32, ptr %8, align 4
  ret i32 %9
}

; Function Attrs: mustprogress nounwind uwtable
define linkonce_odr hidden noundef i32 @_ZNK17GrowableArrayBase6lengthEv(ptr noundef nonnull align 4 dereferenceable(8) %0) #1 comdat align 2 {
  %2 = alloca ptr, align 8
  store ptr %0, ptr %2, align 8
  %3 = load ptr, ptr %2, align 8
  %4 = getelementptr inbounds %class.GrowableArrayBase, ptr %3, i32 0, i32 0
  %5 = load i32, ptr %4, align 4
  ret i32 %5
}

; Function Attrs: mustprogress nounwind uwtable
define hidden void @_ZN13ConstantTable3addEP16MachConstantNode9BasicTypeP13GrowableArrayI6jvalueE(ptr dead_on_unwind noalias writable sret(%"class.ConstantTable::Constant") align 8 %0, ptr noundef nonnull align 8 dereferenceable(36) %1, ptr noundef %2, i8 noundef zeroext %3, ptr noundef %4) #1 align 2 {
  %6 = alloca ptr, align 8
  %7 = alloca ptr, align 8
  %8 = alloca i8, align 1
  %9 = alloca ptr, align 8
  store ptr %1, ptr %6, align 8
  store ptr %2, ptr %7, align 8
  store i8 %3, ptr %8, align 1
  store ptr %4, ptr %9, align 8
  %10 = load ptr, ptr %6, align 8
  %11 = load ptr, ptr %7, align 8
  %12 = load i8, ptr %8, align 1
  %13 = load ptr, ptr %9, align 8
  %14 = load ptr, ptr %9, align 8
  %15 = call noundef i32 @_ZNK17GrowableArrayBase6lengthEv(ptr noundef nonnull align 4 dereferenceable(8) %14)
  %16 = load i8, ptr %8, align 1
  %17 = call noundef i32 @_Z15type2aelembytes9BasicTypeb(i8 noundef zeroext %16, i1 noundef zeroext false)
  %18 = mul nsw i32 %15, %17
  call void @_ZN13ConstantTable3addEP16MachConstantNode9BasicTypeP13GrowableArrayI6jvalueEi(ptr dead_on_unwind writable sret(%"class.ConstantTable::Constant") align 8 %0, ptr noundef nonnull align 8 dereferenceable(36) %10, ptr noundef %11, i8 noundef zeroext %12, ptr noundef %13, i32 noundef %18)
  ret void
}