; Function Attrs: mustprogress nounwind uwtable
define hidden void @_ZN13ConstantTable3addEP16MachConstantNode9BasicTypeP13GrowableArrayI6jvalueE(ptr dead_on_unwind noalias nonnull writable sret(%"class.ConstantTable::Constant") align 8 %0, ptr noundef nonnull align 8 dereferenceable(36) %1, ptr nocapture noundef readnone %2, i8 noundef zeroext %3, ptr noundef %4) local_unnamed_addr #0 align 2 {
  %6 = load i32, ptr %4, align 4
  %7 = zext i8 %3 to i64
  %8 = getelementptr inbounds [20 x i32], ptr @_type2aelembytes, i64 0, i64 %7
  %9 = load i32, ptr %8, align 4
  %10 = mul nsw i32 %9, %6
  tail call void @_ZN13ConstantTable8ConstantC2E9BasicTypeP13GrowableArrayI6jvalueEib(ptr noundef nonnull align 8 dereferenceable(25) %0, i8 noundef zeroext %3, ptr noundef nonnull %4, i32 noundef %10, i1 noundef zeroext true)
  tail call void @_ZN13ConstantTable3addERNS_8ConstantE(ptr noundef nonnull align 8 dereferenceable(36) %1, ptr noundef nonnull align 8 dereferenceable(25) %0)
  ret void
}